target datalayout = "e-m:e-p270:32:32-p271:32:32-p272:64:64-i64:64-i128:128-f80:128-n8:16:32:64-S128"
target triple = "x86_64-pc-linux-gnu"

%"struct.doctest::detail::ContextScopeBase.base" = type <{ %"struct.doctest::IContextScope", i8 }>
%"struct.doctest::IContextScope" = type { ptr }
%"struct.doctest::detail::ResultBuilder" = type { %"struct.doctest::AssertData" }
%"struct.doctest::AssertData" = type { ptr, i32, ptr, i32, ptr, i8, i8, %"class.doctest::String", %"class.doctest::String", i8, ptr, %"class.doctest::AssertData::StringContains" }
%"class.doctest::String" = type { %union.anon.436 }
%union.anon.436 = type { %"struct.doctest::String::view", [8 x i8] }
%"struct.doctest::String::view" = type { ptr, i32, i32 }
%"class.doctest::AssertData::StringContains" = type <{ %"class.doctest::Contains", i8, [7 x i8] }>
%"class.doctest::Contains" = type { %"class.doctest::String" }
%"struct.doctest::detail::Result" = type { i8, %"class.doctest::String" }
%"struct.doctest::detail::Expression_lhs" = type { i8, i32 }
%"struct.doctest::detail::ExpressionDecomposer" = type { i32 }
%"class.std::optional.448" = type { %"struct.std::_Optional_base.449" }
%"struct.std::_Optional_base.449" = type { %"struct.std::_Optional_payload.451" }
%"struct.std::_Optional_payload.451" = type { %"struct.std::_Optional_payload_base.base.453", [7 x i8] }
%"struct.std::_Optional_payload_base.base.453" = type <{ %"union.std::_Optional_payload_base<const Luau::Type *>::_Storage", i8 }>
%"union.std::_Optional_payload_base<const Luau::Type *>::_Storage" = type { ptr }
%"class.doctest::detail::ContextScope.525" = type { %"struct.doctest::detail::ContextScopeBase.base", %class.anon.526 }
%class.anon.526 = type { ptr }
%"struct.std::_Optional_payload_base.452" = type <{ %"union.std::_Optional_payload_base<const Luau::Type *>::_Storage", i8, [7 x i8] }>

@.str = private unnamed_addr constant [1 x i8] zeroinitializer, align 1
@.str.61 = private unnamed_addr constant [105 x i8] c"generated/home/dtcxzyw/WorkSpace/Projects/compilers/llvm-opt-benchmark/bench/luau/luau/tests/Fixture.cpp\00", align 1
@.str.70 = private unnamed_addr constant [9 x i8] c"bool(ty)\00", align 1

; Function Attrs: mustprogress nounwind uwtable
define linkonce_odr dso_local noundef nonnull align 8 dereferenceable(8) ptr @_ZNSt22_Optional_payload_baseIPKN4Luau4TypeEE6_M_getEv(ptr noundef nonnull align 8 dereferenceable(9) %0) #1 comdat align 2 {
  %2 = alloca ptr, align 8
  store ptr %0, ptr %2, align 8
  %3 = load ptr, ptr %2, align 8
  %4 = getelementptr inbounds %"struct.std::_Optional_payload_base.452", ptr %3, i32 0, i32 0
  ret ptr %4
}

; Function Attrs: mustprogress nounwind uwtable
define linkonce_odr dso_local noundef nonnull align 8 dereferenceable(8) ptr @_ZNSt19_Optional_base_implIPKN4Luau4TypeESt14_Optional_baseIS3_Lb1ELb1EEE6_M_getEv(ptr noundef nonnull align 1 dereferenceable(1) %0) #1 comdat align 2 {
  %2 = alloca ptr, align 8
  store ptr %0, ptr %2, align 8
  %3 = load ptr, ptr %2, align 8
  br label %4

4:                                                ; preds = %1
  br label %5

5:                                                ; preds = %4
  br label %6

6:                                                ; preds = %5
  %7 = getelementptr inbounds %"struct.std::_Optional_base.449", ptr %3, i32 0, i32 0
  %8 = call noundef nonnull align 8 dereferenceable(8) ptr @_ZNSt22_Optional_payload_baseIPKN4Luau4TypeEE6_M_getEv(ptr noundef nonnull align 8 dereferenceable(9) %7) #2
  ret ptr %8
}

; Function Attrs: mustprogress nounwind uwtable
define linkonce_odr dso_local void @_ZN7doctest6detail14Expression_lhsIbEC2EObNS_10assertType4EnumE(ptr noundef nonnull align 4 dereferenceable(8) %0, ptr noundef nonnull align 1 dereferenceable(1) %1, i32 noundef %2) unnamed_addr #1 comdat align 2 {
  %4 = alloca ptr, align 8
  %5 = alloca ptr, align 8
  %6 = alloca i32, align 4
  store ptr %0, ptr %4, align 8
  store ptr %1, ptr %5, align 8
  store i32 %2, ptr %6, align 4
  %7 = load ptr, ptr %4, align 8
  %8 = getelementptr inbounds %"struct.doctest::detail::Expression_lhs", ptr %7, i32 0, i32 0
  %9 = load ptr, ptr %5, align 8
  %10 = load i8, ptr %9, align 1
  %11 = trunc i8 %10 to i1
  %12 = zext i1 %11 to i8
  store i8 %12, ptr %8, align 4
  %13 = getelementptr inbounds %"struct.doctest::detail::Expression_lhs", ptr %7, i32 0, i32 1
  %14 = load i32, ptr %6, align 4
  store i32 %14, ptr %13, align 4
  ret void
}

; Function Attrs: mustprogress nounwind uwtable
define linkonce_odr dso_local noundef zeroext i1 @_ZNKSt19_Optional_base_implIPKN4Luau4TypeESt14_Optional_baseIS3_Lb1ELb1EEE13_M_is_engagedEv(ptr noundef nonnull align 1 dereferenceable(1) %0) #1 comdat align 2 {
  %2 = alloca ptr, align 8
  store ptr %0, ptr %2, align 8
  %3 = load ptr, ptr %2, align 8
  %4 = getelementptr inbounds %"struct.std::_Optional_base.449", ptr %3, i32 0, i32 0
  %5 = getelementptr inbounds %"struct.std::_Optional_payload_base.452", ptr %4, i32 0, i32 1
  %6 = load i8, ptr %5, align 8
  %7 = trunc i8 %6 to i1
  ret i1 %7
}

; Function Attrs: mustprogress uwtable
define internal void @"_ZN7doctest6detail12ContextScopeIZN4Luau7Fixture11requireTypeERKNSt7__cxx1112basic_stringIcSt11char_traitsIcESaIcEEEE3$_0EC2ERKSC_"(ptr noundef nonnull align 8 dereferenceable(24) %0, ptr noundef nonnull align 8 dereferenceable(8) %1) unnamed_addr #6 align 2 {
  %3 = alloca ptr, align 8
  %4 = alloca ptr, align 8
  store ptr %0, ptr %3, align 8
  store ptr %1, ptr %4, align 8
  %5 = load ptr, ptr %3, align 8
  call void @_ZN7doctest6detail16ContextScopeBaseC2Ev(ptr noundef nonnull align 8 dereferenceable(9) %5)
  store ptr getelementptr inbounds inrange(-16, 24) ({ [5 x ptr] }, ptr @"_ZTVN7doctest6detail12ContextScopeIZN4Luau7Fixture11requireTypeERKNSt7__cxx1112basic_stringIcSt11char_traitsIcESaIcEEEE3$_0EE", i32 0, i32 0, i32 2), ptr %5, align 8
  %6 = getelementptr inbounds %"class.doctest::detail::ContextScope.525", ptr %5, i32 0, i32 1
  %7 = load ptr, ptr %4, align 8
  call void @llvm.memcpy.p0.p0.i64(ptr align 8 %6, ptr align 8 %7, i64 8, i1 false)
  ret void
}

; Function Attrs: mustprogress nounwind uwtable
define linkonce_odr dso_local noundef nonnull align 8 dereferenceable(8) ptr @_ZNRSt8optionalIPKN4Luau4TypeEEdeEv(ptr noundef nonnull align 8 dereferenceable(16) %0) #1 comdat align 2 {
  %2 = alloca ptr, align 8
  store ptr %0, ptr %2, align 8
  %3 = load ptr, ptr %2, align 8
  %4 = call noundef nonnull align 8 dereferenceable(8) ptr @_ZNSt19_Optional_base_implIPKN4Luau4TypeESt14_Optional_baseIS3_Lb1ELb1EEE6_M_getEv(ptr noundef nonnull align 1 dereferenceable(1) %3) #2
  ret ptr %4
}

; Function Attrs: mustprogress nounwind uwtable
define linkonce_odr dso_local void @_ZN7doctest6detail6ResultD2Ev(ptr noundef nonnull align 8 dereferenceable(32) %0) unnamed_addr #1 comdat align 2 {
  %2 = alloca ptr, align 8
  store ptr %0, ptr %2, align 8
  %3 = load ptr, ptr %2, align 8
  %4 = getelementptr inbounds %"struct.doctest::detail::Result", ptr %3, i32 0, i32 1
  call void @_ZN7doctest6StringD1Ev(ptr noundef nonnull align 8 dereferenceable(24) %4) #2
  ret void
}

; Function Attrs: mustprogress uwtable
define linkonce_odr dso_local i64 @_ZN7doctest6detail20ExpressionDecomposerlsIbEENS0_14Expression_lhsIT_EEOS4_(ptr noundef nonnull align 4 dereferenceable(4) %0, ptr noundef nonnull align 1 dereferenceable(1) %1) #6 comdat align 2 {
  %3 = alloca %"struct.doctest::detail::Expression_lhs", align 4
  %4 = alloca ptr, align 8
  %5 = alloca ptr, align 8
  store ptr %0, ptr %4, align 8
  store ptr %1, ptr %5, align 8
  %6 = load ptr, ptr %4, align 8
  %7 = load ptr, ptr %5, align 8
  %8 = getelementptr inbounds %"struct.doctest::detail::ExpressionDecomposer", ptr %6, i32 0, i32 0
  %9 = load i32, ptr %8, align 4
  call void @_ZN7doctest6detail14Expression_lhsIbEC2EObNS_10assertType4EnumE(ptr noundef nonnull align 4 dereferenceable(8) %3, ptr noundef nonnull align 1 dereferenceable(1) %7, i32 noundef %9)
  %10 = load i64, ptr %3, align 4
  ret i64 %10
}

; Function Attrs: mustprogress nounwind uwtable
define linkonce_odr dso_local noundef zeroext i1 @_ZNKSt8optionalIPKN4Luau4TypeEEcvbEv(ptr noundef nonnull align 8 dereferenceable(16) %0) #1 comdat align 2 {
  %2 = alloca ptr, align 8
  store ptr %0, ptr %2, align 8
  %3 = load ptr, ptr %2, align 8
  %4 = call noundef zeroext i1 @_ZNKSt19_Optional_base_implIPKN4Luau4TypeESt14_Optional_baseIS3_Lb1ELb1EEE13_M_is_engagedEv(ptr noundef nonnull align 1 dereferenceable(1) %3) #2
  ret i1 %4
}

; Function Attrs: mustprogress uwtable
define internal void @"_ZN7doctest6detail16MakeContextScopeIZN4Luau7Fixture11requireTypeERKNSt7__cxx1112basic_stringIcSt11char_traitsIcESaIcEEEE3$_0EENS0_12ContextScopeIT_EERKSE_"(ptr dead_on_unwind noalias writable sret(%"class.doctest::detail::ContextScope.525") align 8 %0, ptr noundef nonnull align 8 dereferenceable(8) %1) #6 {
  %3 = alloca ptr, align 8
  %4 = alloca ptr, align 8
  store ptr %0, ptr %3, align 8
  store ptr %1, ptr %4, align 8
  %5 = load ptr, ptr %4, align 8
  call void @"_ZN7doctest6detail12ContextScopeIZN4Luau7Fixture11requireTypeERKNSt7__cxx1112basic_stringIcSt11char_traitsIcESaIcEEEE3$_0EC2ERKSC_"(ptr noundef nonnull align 8 dereferenceable(24) %0, ptr noundef nonnull align 8 dereferenceable(8) %5)
  ret void
}

; Function Attrs: mustprogress uwtable
define dso_local noundef ptr @_ZN4Luau7Fixture11requireTypeERKNSt7__cxx1112basic_stringIcSt11char_traitsIcESaIcEEE(ptr noundef nonnull align 8 dereferenceable(2232) %0, ptr noundef nonnull align 8 dereferenceable(32) %1) #6 align 2 personality ptr @__gxx_personality_v0 {
  %3 = alloca ptr, align 8
  %4 = alloca ptr, align 8
  %5 = alloca %"class.std::optional.448", align 8
  %6 = alloca %"class.doctest::detail::ContextScope.525", align 8
  %7 = alloca %class.anon.526, align 8
  %8 = alloca %"struct.doctest::detail::ResultBuilder", align 8
  %9 = alloca %"class.doctest::String", align 8
  %10 = alloca ptr, align 8
  %11 = alloca i32, align 4
  %12 = alloca %"struct.doctest::detail::Result", align 8
  %13 = alloca %"struct.doctest::detail::Expression_lhs", align 4
  %14 = alloca %"struct.doctest::detail::ExpressionDecomposer", align 4
  %15 = alloca i8, align 1
  store ptr %0, ptr %3, align 8
  store ptr %1, ptr %4, align 8
  %16 = load ptr, ptr %3, align 8
  %17 = load ptr, ptr %4, align 8
  %18 = call { ptr, i8 } @_ZN4Luau7Fixture7getTypeERKNSt7__cxx1112basic_stringIcSt11char_traitsIcESaIcEEE(ptr noundef nonnull align 8 dereferenceable(2232) %16, ptr noundef nonnull align 8 dereferenceable(32) %17)
  %19 = getelementptr inbounds %"class.std::optional.448", ptr %5, i32 0, i32 0
  %20 = getelementptr inbounds %"struct.std::_Optional_base.449", ptr %19, i32 0, i32 0
  %21 = getelementptr inbounds { ptr, i8 }, ptr %20, i32 0, i32 0
  %22 = extractvalue { ptr, i8 } %18, 0
  store ptr %22, ptr %21, align 8
  %23 = getelementptr inbounds { ptr, i8 }, ptr %20, i32 0, i32 1
  %24 = extractvalue { ptr, i8 } %18, 1
  store i8 %24, ptr %23, align 8
  br label %25

25:                                               ; preds = %2
  %26 = getelementptr inbounds %class.anon.526, ptr %7, i32 0, i32 0
  %27 = load ptr, ptr %4, align 8
  store ptr %27, ptr %26, align 8
  call void @"_ZN7doctest6detail16MakeContextScopeIZN4Luau7Fixture11requireTypeERKNSt7__cxx1112basic_stringIcSt11char_traitsIcESaIcEEEE3$_0EENS0_12ContextScopeIT_EERKSE_"(ptr dead_on_unwind writable sret(%"class.doctest::detail::ContextScope.525") align 8 %6, ptr noundef nonnull align 8 dereferenceable(8) %7)
  invoke void @_ZN7doctest6StringC1EPKc(ptr noundef nonnull align 8 dereferenceable(24) %9, ptr noundef @.str)
          to label %28 unwind label %37

28:                                               ; preds = %25
  invoke void @_ZN7doctest6detail13ResultBuilderC1ENS_10assertType4EnumEPKciS5_S5_RKNS_6StringE(ptr noundef nonnull align 8 dereferenceable(144) %8, i32 noundef 12, ptr noundef @.str.61, i32 noundef 366, ptr noundef @.str.70, ptr noundef @.str, ptr noundef nonnull align 8 dereferenceable(24) %9)
          to label %29 unwind label %41

29:                                               ; preds = %28
  call void @_ZN7doctest6StringD1Ev(ptr noundef nonnull align 8 dereferenceable(24) %9) #2
  invoke void @_ZN7doctest6detail20ExpressionDecomposerC1ENS_10assertType4EnumE(ptr noundef nonnull align 4 dereferenceable(4) %14, i32 noundef 12)
          to label %30 unwind label %45

30:                                               ; preds = %29
  %31 = call noundef zeroext i1 @_ZNKSt8optionalIPKN4Luau4TypeEEcvbEv(ptr noundef nonnull align 8 dereferenceable(16) %5) #2
  %32 = zext i1 %31 to i8
  store i8 %32, ptr %15, align 1
  %33 = invoke i64 @_ZN7doctest6detail20ExpressionDecomposerlsIbEENS0_14Expression_lhsIT_EEOS4_(ptr noundef nonnull align 4 dereferenceable(4) %14, ptr noundef nonnull align 1 dereferenceable(1) %15)
          to label %34 unwind label %45

34:                                               ; preds = %30
  store i64 %33, ptr %13, align 4
  invoke void @_ZN7doctest6detail14Expression_lhsIbEcvNS0_6ResultEEv(ptr dead_on_unwind writable sret(%"struct.doctest::detail::Result") align 8 %12, ptr noundef nonnull align 4 dereferenceable(8) %13)
          to label %35 unwind label %45

35:                                               ; preds = %34
  invoke void @_ZN7doctest6detail13ResultBuilder9setResultERKNS0_6ResultE(ptr noundef nonnull align 8 dereferenceable(144) %8, ptr noundef nonnull align 8 dereferenceable(32) %12)
          to label %36 unwind label %49

36:                                               ; preds = %35
  call void @_ZN7doctest6detail6ResultD2Ev(ptr noundef nonnull align 8 dereferenceable(32) %12) #2
  br label %58

37:                                               ; preds = %25
  %38 = landingpad { ptr, i32 }
          cleanup
  %39 = extractvalue { ptr, i32 } %38, 0
  store ptr %39, ptr %10, align 8
  %40 = extractvalue { ptr, i32 } %38, 1
  store i32 %40, ptr %11, align 4
  br label %78

41:                                               ; preds = %28
  %42 = landingpad { ptr, i32 }
          cleanup
  %43 = extractvalue { ptr, i32 } %42, 0
  store ptr %43, ptr %10, align 8
  %44 = extractvalue { ptr, i32 } %42, 1
  store i32 %44, ptr %11, align 4
  call void @_ZN7doctest6StringD1Ev(ptr noundef nonnull align 8 dereferenceable(24) %9) #2
  br label %78

45:                                               ; preds = %34, %30, %29
  %46 = landingpad { ptr, i32 }
          catch ptr null
  %47 = extractvalue { ptr, i32 } %46, 0
  store ptr %47, ptr %10, align 8
  %48 = extractvalue { ptr, i32 } %46, 1
  store i32 %48, ptr %11, align 4
  br label %53

49:                                               ; preds = %35
  %50 = landingpad { ptr, i32 }
          catch ptr null
  %51 = extractvalue { ptr, i32 } %50, 0
  store ptr %51, ptr %10, align 8
  %52 = extractvalue { ptr, i32 } %50, 1
  store i32 %52, ptr %11, align 4
  call void @_ZN7doctest6detail6ResultD2Ev(ptr noundef nonnull align 8 dereferenceable(32) %12) #2
  br label %53

53:                                               ; preds = %49, %45
  %54 = load ptr, ptr %10, align 8
  %55 = call ptr @__cxa_begin_catch(ptr %54) #2
  invoke void @_ZN7doctest6detail13ResultBuilder18translateExceptionEv(ptr noundef nonnull align 8 dereferenceable(144) %8)
          to label %56 unwind label %62

56:                                               ; preds = %53
  invoke void @__cxa_end_catch()
          to label %57 unwind label %66

57:                                               ; preds = %56
  br label %58

58:                                               ; preds = %57, %36
  %59 = invoke noundef zeroext i1 @_ZN7doctest6detail13ResultBuilder3logEv(ptr noundef nonnull align 8 dereferenceable(144) %8)
          to label %60 unwind label %66

60:                                               ; preds = %58
  br i1 %59, label %61, label %71

61:                                               ; preds = %60
  call void asm sideeffect "int $$3\0A", "~{dirflag},~{fpsr},~{flags}"() #2, !srcloc !17
  br label %71

62:                                               ; preds = %53
  %63 = landingpad { ptr, i32 }
          cleanup
  %64 = extractvalue { ptr, i32 } %63, 0
  store ptr %64, ptr %10, align 8
  %65 = extractvalue { ptr, i32 } %63, 1
  store i32 %65, ptr %11, align 4
  invoke void @__cxa_end_catch()
          to label %70 unwind label %84

66:                                               ; preds = %71, %58, %56
  %67 = landingpad { ptr, i32 }
          cleanup
  %68 = extractvalue { ptr, i32 } %67, 0
  store ptr %68, ptr %10, align 8
  %69 = extractvalue { ptr, i32 } %67, 1
  store i32 %69, ptr %11, align 4
  br label %77

70:                                               ; preds = %62
  br label %77

71:                                               ; preds = %61, %60
  invoke void @_ZNK7doctest6detail13ResultBuilder5reactEv(ptr noundef nonnull align 8 dereferenceable(144) %8)
          to label %72 unwind label %66

72:                                               ; preds = %71
  call void @_ZN7doctest6detail13ResultBuilderD2Ev(ptr noundef nonnull align 8 dereferenceable(144) %8) #2
  call void @"_ZN7doctest6detail12ContextScopeIZN4Luau7Fixture11requireTypeERKNSt7__cxx1112basic_stringIcSt11char_traitsIcESaIcEEEE3$_0ED2Ev"(ptr noundef nonnull align 8 dereferenceable(24) %6) #2
  br label %73

73:                                               ; preds = %72
  %74 = call noundef nonnull align 8 dereferenceable(8) ptr @_ZNRSt8optionalIPKN4Luau4TypeEEdeEv(ptr noundef nonnull align 8 dereferenceable(16) %5) #2
  %75 = load ptr, ptr %74, align 8
  %76 = call noundef ptr @_ZN4Luau6followEPKNS_4TypeE(ptr noundef %75)
  ret ptr %76

77:                                               ; preds = %70, %66
  call void @_ZN7doctest6detail13ResultBuilderD2Ev(ptr noundef nonnull align 8 dereferenceable(144) %8) #2
  br label %78

78:                                               ; preds = %77, %41, %37
  call void @"_ZN7doctest6detail12ContextScopeIZN4Luau7Fixture11requireTypeERKNSt7__cxx1112basic_stringIcSt11char_traitsIcESaIcEEEE3$_0ED2Ev"(ptr noundef nonnull align 8 dereferenceable(24) %6) #2
  br label %79

79:                                               ; preds = %78
  %80 = load ptr, ptr %10, align 8
  %81 = load i32, ptr %11, align 4
  %82 = insertvalue { ptr, i32 } poison, ptr %80, 0
  %83 = insertvalue { ptr, i32 } %82, i32 %81, 1
  resume { ptr, i32 } %83

84:                                               ; preds = %62
  %85 = landingpad { ptr, i32 }
          catch ptr null
  %86 = extractvalue { ptr, i32 } %85, 0
  call void @__clang_call_terminate(ptr %86) #15
  unreachable
}