; Function Attrs: mustprogress uwtable
define dso_local noundef ptr @_ZN4Luau7Fixture11requireTypeERKNSt7__cxx1112basic_stringIcSt11char_traitsIcESaIcEEE(ptr noundef nonnull align 8 dereferenceable(2232) %0, ptr noundef nonnull align 8 dereferenceable(32) %1) local_unnamed_addr #6 align 2 personality ptr @__gxx_personality_v0 {
  %3 = alloca %"class.doctest::detail::ContextScope.525", align 8
  %4 = alloca %"struct.doctest::detail::ResultBuilder", align 8
  %5 = alloca %"class.doctest::String", align 8
  %6 = alloca %"struct.doctest::detail::Result", align 8
  %7 = alloca %"struct.doctest::detail::Expression_lhs", align 8
  %8 = alloca %"struct.doctest::detail::ExpressionDecomposer", align 4
  %9 = tail call { ptr, i8 } @_ZN4Luau7Fixture7getTypeERKNSt7__cxx1112basic_stringIcSt11char_traitsIcESaIcEEE(ptr noundef nonnull align 8 dereferenceable(2232) %0, ptr noundef nonnull align 8 dereferenceable(32) %1)
  %10 = extractvalue { ptr, i8 } %9, 1
  %11 = ptrtoint ptr %1 to i64
  call void @_ZN7doctest6detail16ContextScopeBaseC2Ev(ptr noundef nonnull align 8 dereferenceable(24) %3)
  store ptr getelementptr inbounds nuw inrange(-16, 24) (i8, ptr @"_ZTVN7doctest6detail12ContextScopeIZN4Luau7Fixture11requireTypeERKNSt7__cxx1112basic_stringIcSt11char_traitsIcESaIcEEEE3$_0EE", i64 16), ptr %3, align 8, !alias.scope !66
  %12 = getelementptr inbounds nuw i8, ptr %3, i64 16
  store i64 %11, ptr %12, align 8, !alias.scope !66
  invoke void @_ZN7doctest6StringC1EPKc(ptr noundef nonnull align 8 dereferenceable(24) %5, ptr noundef nonnull @.str)
          to label %13 unwind label %21

13:                                               ; preds = %2
  invoke void @_ZN7doctest6detail13ResultBuilderC1ENS_10assertType4EnumEPKciS5_S5_RKNS_6StringE(ptr noundef nonnull align 8 dereferenceable(144) %4, i32 noundef 12, ptr noundef nonnull @.str.61, i32 noundef 366, ptr noundef nonnull @.str.70, ptr noundef nonnull @.str, ptr noundef nonnull align 8 dereferenceable(24) %5)
          to label %14 unwind label %23

14:                                               ; preds = %13
  call void @_ZN7doctest6StringD1Ev(ptr noundef nonnull align 8 dereferenceable(24) %5) #27
  invoke void @_ZN7doctest6detail20ExpressionDecomposerC1ENS_10assertType4EnumE(ptr noundef nonnull align 4 dereferenceable(4) %8, i32 noundef 12)
          to label %15 unwind label %25

15:                                               ; preds = %14
  %16 = and i8 %10, 1
  %17 = load i32, ptr %8, align 4
  %.sroa.22.0.insert.ext.i = zext i32 %17 to i64
  %.sroa.22.0.insert.shift.i = shl nuw i64 %.sroa.22.0.insert.ext.i, 32
  %.sroa.0.0.insert.ext.i = zext nneg i8 %16 to i64
  %.sroa.0.0.insert.insert.i = or disjoint i64 %.sroa.22.0.insert.shift.i, %.sroa.0.0.insert.ext.i
  store i64 %.sroa.0.0.insert.insert.i, ptr %7, align 8
  invoke void @_ZN7doctest6detail14Expression_lhsIbEcvNS0_6ResultEEv(ptr dead_on_unwind nonnull writable sret(%"struct.doctest::detail::Result") align 8 %6, ptr noundef nonnull align 4 dereferenceable(8) %7)
          to label %18 unwind label %25

18:                                               ; preds = %15
  invoke void @_ZN7doctest6detail13ResultBuilder9setResultERKNS0_6ResultE(ptr noundef nonnull align 8 dereferenceable(144) %4, ptr noundef nonnull align 8 dereferenceable(32) %6)
          to label %19 unwind label %27

19:                                               ; preds = %18
  %20 = getelementptr inbounds nuw i8, ptr %6, i64 8
  call void @_ZN7doctest6StringD1Ev(ptr noundef nonnull align 8 dereferenceable(24) %20) #27
  br label %33

21:                                               ; preds = %2
  %22 = landingpad { ptr, i32 }
          cleanup
  br label %56

23:                                               ; preds = %13
  %24 = landingpad { ptr, i32 }
          cleanup
  call void @_ZN7doctest6StringD1Ev(ptr noundef nonnull align 8 dereferenceable(24) %5) #27
  br label %56

25:                                               ; preds = %15, %14
  %26 = landingpad { ptr, i32 }
          catch ptr null
  br label %30

27:                                               ; preds = %18
  %28 = landingpad { ptr, i32 }
          catch ptr null
  %29 = getelementptr inbounds nuw i8, ptr %6, i64 8
  call void @_ZN7doctest6StringD1Ev(ptr noundef nonnull align 8 dereferenceable(24) %29) #27
  br label %30

30:                                               ; preds = %27, %25
  %.pn = phi { ptr, i32 } [ %28, %27 ], [ %26, %25 ]
  %.16 = extractvalue { ptr, i32 } %.pn, 0
  %31 = call ptr @__cxa_begin_catch(ptr %.16) #27
  invoke void @_ZN7doctest6detail13ResultBuilder18translateExceptionEv(ptr noundef nonnull align 8 dereferenceable(144) %4)
          to label %32 unwind label %37

32:                                               ; preds = %30
  invoke void @__cxa_end_catch()
          to label %33 unwind label %39

33:                                               ; preds = %32, %19
  %34 = invoke noundef zeroext i1 @_ZN7doctest6detail13ResultBuilder3logEv(ptr noundef nonnull align 8 dereferenceable(144) %4)
          to label %35 unwind label %39

35:                                               ; preds = %33
  br i1 %34, label %36, label %41

36:                                               ; preds = %35
  call void asm sideeffect "int $$3\0A", "~{dirflag},~{fpsr},~{flags}"() #27, !srcloc !69
  br label %41

37:                                               ; preds = %30
  %38 = landingpad { ptr, i32 }
          cleanup
  invoke void @__cxa_end_catch()
          to label %55 unwind label %57

39:                                               ; preds = %41, %33, %32
  %40 = landingpad { ptr, i32 }
          cleanup
  br label %55

41:                                               ; preds = %36, %35
  invoke void @_ZNK7doctest6detail13ResultBuilder5reactEv(ptr noundef nonnull align 8 dereferenceable(144) %4)
          to label %42 unwind label %39

42:                                               ; preds = %41
  %43 = getelementptr inbounds nuw i8, ptr %4, i64 112
  call void @_ZN7doctest6StringD1Ev(ptr noundef nonnull align 8 dereferenceable(25) %43) #27
  %44 = getelementptr inbounds nuw i8, ptr %4, i64 72
  call void @_ZN7doctest6StringD1Ev(ptr noundef nonnull align 8 dereferenceable(24) %44) #27
  %45 = getelementptr inbounds nuw i8, ptr %4, i64 48
  call void @_ZN7doctest6StringD1Ev(ptr noundef nonnull align 8 dereferenceable(24) %45) #27
  store ptr getelementptr inbounds nuw inrange(-16, 24) (i8, ptr @"_ZTVN7doctest6detail12ContextScopeIZN4Luau7Fixture11requireTypeERKNSt7__cxx1112basic_stringIcSt11char_traitsIcESaIcEEEE3$_0EE", i64 16), ptr %3, align 8
  %46 = getelementptr inbounds nuw i8, ptr %3, i64 8
  %47 = load i8, ptr %46, align 8
  %48 = trunc i8 %47 to i1
  br i1 %48, label %49, label %"_ZN7doctest6detail12ContextScopeIZN4Luau7Fixture11requireTypeERKNSt7__cxx1112basic_stringIcSt11char_traitsIcESaIcEEEE3$_0ED2Ev.exit"

49:                                               ; preds = %42
  invoke void @_ZN7doctest6detail16ContextScopeBase7destroyEv(ptr noundef nonnull align 8 dereferenceable(24) %3)
          to label %"_ZN7doctest6detail12ContextScopeIZN4Luau7Fixture11requireTypeERKNSt7__cxx1112basic_stringIcSt11char_traitsIcESaIcEEEE3$_0ED2Ev.exit" unwind label %50

50:                                               ; preds = %49
  %51 = landingpad { ptr, i32 }
          catch ptr null
  %52 = extractvalue { ptr, i32 } %51, 0
  call void @__clang_call_terminate(ptr %52) #25
  unreachable

"_ZN7doctest6detail12ContextScopeIZN4Luau7Fixture11requireTypeERKNSt7__cxx1112basic_stringIcSt11char_traitsIcESaIcEEEE3$_0ED2Ev.exit": ; preds = %42, %49
  %53 = extractvalue { ptr, i8 } %9, 0
  call void @_ZN7doctest13IContextScopeD2Ev(ptr noundef nonnull align 8 dereferenceable(24) %3) #27
  %54 = call noundef ptr @_ZN4Luau6followEPKNS_4TypeE(ptr noundef %53)
  ret ptr %54

55:                                               ; preds = %37, %39
  %.pn7 = phi { ptr, i32 } [ %40, %39 ], [ %38, %37 ]
  call void @_ZN7doctest6detail13ResultBuilderD2Ev(ptr noundef nonnull align 8 dereferenceable(144) %4) #27
  br label %56

56:                                               ; preds = %55, %23, %21
  %.pn7.pn = phi { ptr, i32 } [ %.pn7, %55 ], [ %24, %23 ], [ %22, %21 ]
  call void @"_ZN7doctest6detail12ContextScopeIZN4Luau7Fixture11requireTypeERKNSt7__cxx1112basic_stringIcSt11char_traitsIcESaIcEEEE3$_0ED2Ev"(ptr noundef nonnull align 8 dereferenceable(24) %3) #27
  resume { ptr, i32 } %.pn7.pn

57:                                               ; preds = %37
  %58 = landingpad { ptr, i32 }
          catch ptr null
  %59 = extractvalue { ptr, i32 } %58, 0
  call void @__clang_call_terminate(ptr %59) #25
  unreachable
}